target datalayout = "e-m:e-p270:32:32-p271:32:32-p272:64:64-i64:64-i128:128-f80:128-n8:16:32:64-S128"
target triple = "x86_64-unknown-linux-gnu"

%struct.BlockCopyState = type { ptr, ptr, i64, i64, i64, i32, %struct.CoMutex, i64, i32, %struct.BlockReqList, %struct.anon.0, i8, ptr, ptr, ptr, %struct.RateLimit }
%struct.CoMutex = type { i32, ptr, %struct.anon, %struct.anon, i32, i32, ptr }
%struct.anon = type { ptr }
%struct.BlockReqList = type { ptr }
%struct.anon.0 = type { ptr }
%struct.RateLimit = type { %struct.QemuMutex, i64, i64, i64, i64, i64 }
%struct.QemuMutex = type { %union.pthread_mutex_t, i8 }
%union.pthread_mutex_t = type { %struct.__pthread_mutex_s }
%struct.__pthread_mutex_s = type { i32, i32, i32, i32, i32, i16, i16, %struct.__pthread_internal_list }
%struct.__pthread_internal_list = type { ptr, ptr }
%struct.CoQueue = type { %struct.anon.12 }
%struct.anon.12 = type { ptr, ptr }
%struct.QemuLockable = type { ptr, ptr, ptr }
%struct.BlockCopyCallState = type { ptr, i64, i64, i32, i64, i8, ptr, ptr, ptr, i8, %struct.QemuCoSleep, i8, %struct.anon.3, i8, i32 }
%struct.QemuCoSleep = type { ptr }
%struct.anon.3 = type { ptr, ptr }
%struct.BlockCopyTask = type { %struct.AioTask, ptr, ptr, i32, %struct.BlockReq }
%struct.AioTask = type { ptr, ptr, i32 }
%struct.BlockReq = type { i64, i64, %struct.CoQueue, %struct.anon.13 }
%struct.anon.13 = type { ptr, ptr }

@.str.1 = private unnamed_addr constant [27 x i8] c"../qemu/block/block-copy.c\00", align 1
@.str.9 = private unnamed_addr constant [41 x i8] c"QEMU_IS_ALIGNED(offset, s->cluster_size)\00", align 1
@__PRETTY_FUNCTION__.block_copy_task_create = private unnamed_addr constant [96 x i8] c"BlockCopyTask *block_copy_task_create(BlockCopyState *, BlockCopyCallState *, int64_t, int64_t)\00", align 1
@.str.14 = private unnamed_addr constant [48 x i8] c"!reqlist_find_conflict(&s->reqs, offset, bytes)\00", align 1

; Function Attrs: nounwind sspstrong uwtable
define internal void @qemu_lockable_unlock(ptr noundef %x) #0 {
entry:
  %x.addr = alloca ptr, align 8
  store ptr %x, ptr %x.addr, align 8
  %0 = load ptr, ptr %x.addr, align 8
  %unlock = getelementptr inbounds %struct.QemuLockable, ptr %0, i32 0, i32 2
  %1 = load ptr, ptr %unlock, align 8
  %2 = load ptr, ptr %x.addr, align 8
  %object = getelementptr inbounds %struct.QemuLockable, ptr %2, i32 0, i32 0
  %3 = load ptr, ptr %object, align 8
  call void %1(ptr noundef %3)
  ret void
}

; Function Attrs: nounwind sspstrong uwtable
define internal void @qemu_lockable_auto_unlock(ptr noundef %x) #0 {
entry:
  %x.addr = alloca ptr, align 8
  store ptr %x, ptr %x.addr, align 8
  %0 = load ptr, ptr %x.addr, align 8
  %tobool = icmp ne ptr %0, null
  br i1 %tobool, label %if.then, label %if.end

if.then:                                          ; preds = %entry
  %1 = load ptr, ptr %x.addr, align 8
  call void @qemu_lockable_unlock(ptr noundef %1)
  br label %if.end

if.end:                                           ; preds = %if.then, %entry
  ret void
}

; Function Attrs: nounwind sspstrong uwtable
define internal void @glib_autoptr_clear_QemuLockable(ptr noundef %_ptr) #0 {
entry:
  %_ptr.addr = alloca ptr, align 8
  store ptr %_ptr, ptr %_ptr.addr, align 8
  %0 = load ptr, ptr %_ptr.addr, align 8
  %tobool = icmp ne ptr %0, null
  br i1 %tobool, label %if.then, label %if.end

if.then:                                          ; preds = %entry
  %1 = load ptr, ptr %_ptr.addr, align 8
  call void @qemu_lockable_auto_unlock(ptr noundef %1)
  br label %if.end

if.end:                                           ; preds = %if.then, %entry
  ret void
}

; Function Attrs: nounwind sspstrong uwtable
define internal void @qemu_lockable_lock(ptr noundef %x) #0 {
entry:
  %x.addr = alloca ptr, align 8
  store ptr %x, ptr %x.addr, align 8
  %0 = load ptr, ptr %x.addr, align 8
  %lock = getelementptr inbounds %struct.QemuLockable, ptr %0, i32 0, i32 1
  %1 = load ptr, ptr %lock, align 8
  %2 = load ptr, ptr %x.addr, align 8
  %object = getelementptr inbounds %struct.QemuLockable, ptr %2, i32 0, i32 0
  %3 = load ptr, ptr %object, align 8
  call void %1(ptr noundef %3)
  ret void
}

; Function Attrs: nounwind sspstrong uwtable
define internal void @glib_autoptr_cleanup_QemuLockable(ptr noundef %_ptr) #0 {
entry:
  %_ptr.addr = alloca ptr, align 8
  store ptr %_ptr, ptr %_ptr.addr, align 8
  %0 = load ptr, ptr %_ptr.addr, align 8
  %1 = load ptr, ptr %0, align 8
  call void @glib_autoptr_clear_QemuLockable(ptr noundef %1)
  ret void
}

; Function Attrs: nounwind sspstrong uwtable
define internal i64 @block_copy_chunk_size(ptr noundef %s) #0 {
entry:
  %retval = alloca i64, align 8
  %s.addr = alloca ptr, align 8
  %_a6 = alloca i64, align 8
  %_a4 = alloca i64, align 8
  %_b5 = alloca i64, align 8
  %tmp = alloca i64, align 8
  %_b7 = alloca i64, align 8
  %tmp3 = alloca i64, align 8
  %_a10 = alloca i64, align 8
  %_a8 = alloca i64, align 8
  %_b9 = alloca i64, align 8
  %tmp11 = alloca i64, align 8
  %_b11 = alloca i64, align 8
  %tmp18 = alloca i64, align 8
  store ptr %s, ptr %s.addr, align 8
  %0 = load ptr, ptr %s.addr, align 8
  %method = getelementptr inbounds %struct.BlockCopyState, ptr %0, i32 0, i32 8
  %1 = load i32, ptr %method, align 8
  switch i32 %1, label %sw.default [
    i32 0, label %sw.bb
    i32 1, label %sw.bb1
    i32 3, label %sw.bb1
    i32 4, label %sw.bb9
  ]

sw.bb:                                            ; preds = %entry
  %2 = load ptr, ptr %s.addr, align 8
  %cluster_size = getelementptr inbounds %struct.BlockCopyState, ptr %2, i32 0, i32 2
  %3 = load i64, ptr %cluster_size, align 8
  store i64 %3, ptr %retval, align 8
  br label %return

sw.bb1:                                           ; preds = %entry, %entry
  %4 = load ptr, ptr %s.addr, align 8
  %cluster_size2 = getelementptr inbounds %struct.BlockCopyState, ptr %4, i32 0, i32 2
  %5 = load i64, ptr %cluster_size2, align 8
  store i64 %5, ptr %_a4, align 8
  store i64 1048576, ptr %_b5, align 8
  %6 = load i64, ptr %_a4, align 8
  %7 = load i64, ptr %_b5, align 8
  %cmp = icmp sgt i64 %6, %7
  br i1 %cmp, label %cond.true, label %cond.false

cond.true:                                        ; preds = %sw.bb1
  %8 = load i64, ptr %_a4, align 8
  br label %cond.end

cond.false:                                       ; preds = %sw.bb1
  %9 = load i64, ptr %_b5, align 8
  br label %cond.end

cond.end:                                         ; preds = %cond.false, %cond.true
  %cond = phi i64 [ %8, %cond.true ], [ %9, %cond.false ]
  store i64 %cond, ptr %tmp, align 8
  %10 = load i64, ptr %tmp, align 8
  store i64 %10, ptr %_a6, align 8
  %11 = load ptr, ptr %s.addr, align 8
  %max_transfer = getelementptr inbounds %struct.BlockCopyState, ptr %11, i32 0, i32 3
  %12 = load i64, ptr %max_transfer, align 8
  store i64 %12, ptr %_b7, align 8
  %13 = load i64, ptr %_a6, align 8
  %14 = load i64, ptr %_b7, align 8
  %cmp4 = icmp slt i64 %13, %14
  br i1 %cmp4, label %cond.true5, label %cond.false6

cond.true5:                                       ; preds = %cond.end
  %15 = load i64, ptr %_a6, align 8
  br label %cond.end7

cond.false6:                                      ; preds = %cond.end
  %16 = load i64, ptr %_b7, align 8
  br label %cond.end7

cond.end7:                                        ; preds = %cond.false6, %cond.true5
  %cond8 = phi i64 [ %15, %cond.true5 ], [ %16, %cond.false6 ]
  store i64 %cond8, ptr %tmp3, align 8
  %17 = load i64, ptr %tmp3, align 8
  store i64 %17, ptr %retval, align 8
  br label %return

sw.bb9:                                           ; preds = %entry
  %18 = load ptr, ptr %s.addr, align 8
  %cluster_size10 = getelementptr inbounds %struct.BlockCopyState, ptr %18, i32 0, i32 2
  %19 = load i64, ptr %cluster_size10, align 8
  store i64 %19, ptr %_a8, align 8
  store i64 16777216, ptr %_b9, align 8
  %20 = load i64, ptr %_a8, align 8
  %21 = load i64, ptr %_b9, align 8
  %cmp12 = icmp sgt i64 %20, %21
  br i1 %cmp12, label %cond.true13, label %cond.false14

cond.true13:                                      ; preds = %sw.bb9
  %22 = load i64, ptr %_a8, align 8
  br label %cond.end15

cond.false14:                                     ; preds = %sw.bb9
  %23 = load i64, ptr %_b9, align 8
  br label %cond.end15

cond.end15:                                       ; preds = %cond.false14, %cond.true13
  %cond16 = phi i64 [ %22, %cond.true13 ], [ %23, %cond.false14 ]
  store i64 %cond16, ptr %tmp11, align 8
  %24 = load i64, ptr %tmp11, align 8
  store i64 %24, ptr %_a10, align 8
  %25 = load ptr, ptr %s.addr, align 8
  %max_transfer17 = getelementptr inbounds %struct.BlockCopyState, ptr %25, i32 0, i32 3
  %26 = load i64, ptr %max_transfer17, align 8
  store i64 %26, ptr %_b11, align 8
  %27 = load i64, ptr %_a10, align 8
  %28 = load i64, ptr %_b11, align 8
  %cmp19 = icmp slt i64 %27, %28
  br i1 %cmp19, label %cond.true20, label %cond.false21

cond.true20:                                      ; preds = %cond.end15
  %29 = load i64, ptr %_a10, align 8
  br label %cond.end22

cond.false21:                                     ; preds = %cond.end15
  %30 = load i64, ptr %_b11, align 8
  br label %cond.end22

cond.end22:                                       ; preds = %cond.false21, %cond.true20
  %cond23 = phi i64 [ %29, %cond.true20 ], [ %30, %cond.false21 ]
  store i64 %cond23, ptr %tmp18, align 8
  %31 = load i64, ptr %tmp18, align 8
  store i64 %31, ptr %retval, align 8
  br label %return

sw.default:                                       ; preds = %entry
  call void @abort() #8
  unreachable

return:                                           ; preds = %cond.end22, %cond.end7, %sw.bb
  %32 = load i64, ptr %retval, align 8
  ret i64 %32
}

; Function Attrs: nounwind sspstrong uwtable
define internal ptr @qemu_lockable_auto_lock(ptr noundef %x) #0 {
entry:
  %x.addr = alloca ptr, align 8
  store ptr %x, ptr %x.addr, align 8
  %0 = load ptr, ptr %x.addr, align 8
  call void @qemu_lockable_lock(ptr noundef %0)
  %1 = load ptr, ptr %x.addr, align 8
  ret ptr %1
}

; Function Attrs: nounwind sspstrong uwtable
define internal ptr @block_copy_task_create(ptr noundef %s, ptr noundef %call_state, i64 noundef %offset, i64 noundef %bytes) #0 {
entry:
  %x.addr.i = alloca ptr, align 8
  %lockable.addr.i = alloca ptr, align 8
  %retval = alloca ptr, align 8
  %s.addr = alloca ptr, align 8
  %call_state.addr = alloca ptr, align 8
  %offset.addr = alloca i64, align 8
  %bytes.addr = alloca i64, align 8
  %task = alloca ptr, align 8
  %max_chunk = alloca i64, align 8
  %qemu_lockable_auto12 = alloca ptr, align 8
  %.compoundliteral = alloca %struct.QemuLockable, align 8
  %_a13 = alloca i64, align 8
  %_b14 = alloca i64, align 8
  %tmp = alloca i64, align 8
  %cleanup.dest.slot = alloca i32, align 4
  %.compoundliteral27 = alloca %struct.BlockCopyTask, align 8
  store ptr %s, ptr %s.addr, align 8
  store ptr %call_state, ptr %call_state.addr, align 8
  store i64 %offset, ptr %offset.addr, align 8
  store i64 %bytes, ptr %bytes.addr, align 8
  %0 = load ptr, ptr %s.addr, align 8
  %lock = getelementptr inbounds %struct.BlockCopyState, ptr %0, i32 0, i32 6
  %object = getelementptr inbounds %struct.QemuLockable, ptr %.compoundliteral, i32 0, i32 0
  %1 = load ptr, ptr %s.addr, align 8
  %lock1 = getelementptr inbounds %struct.BlockCopyState, ptr %1, i32 0, i32 6
  store ptr %lock1, ptr %object, align 8
  %lock2 = getelementptr inbounds %struct.QemuLockable, ptr %.compoundliteral, i32 0, i32 1
  store ptr @qemu_co_mutex_lock, ptr %lock2, align 8
  %unlock = getelementptr inbounds %struct.QemuLockable, ptr %.compoundliteral, i32 0, i32 2
  store ptr @qemu_co_mutex_unlock, ptr %unlock, align 8
  store ptr %lock, ptr %x.addr.i, align 8
  store ptr %.compoundliteral, ptr %lockable.addr.i, align 8
  %2 = load ptr, ptr %x.addr.i, align 8
  %tobool.i = icmp ne ptr %2, null
  br i1 %tobool.i, label %cond.true.i, label %cond.false.i

cond.true.i:                                      ; preds = %entry
  %3 = load ptr, ptr %lockable.addr.i, align 8
  br label %qemu_make_lockable.exit

cond.false.i:                                     ; preds = %entry
  br label %qemu_make_lockable.exit

qemu_make_lockable.exit:                          ; preds = %cond.false.i, %cond.true.i
  %cond.i = phi ptr [ %3, %cond.true.i ], [ null, %cond.false.i ]
  %call3 = call ptr @qemu_lockable_auto_lock(ptr noundef %cond.i)
  store ptr %call3, ptr %qemu_lockable_auto12, align 8
  %4 = load ptr, ptr %s.addr, align 8
  %call4 = call i64 @block_copy_chunk_size(ptr noundef %4)
  store i64 %call4, ptr %_a13, align 8
  %5 = load ptr, ptr %call_state.addr, align 8
  %max_chunk5 = getelementptr inbounds %struct.BlockCopyCallState, ptr %5, i32 0, i32 4
  %6 = load i64, ptr %max_chunk5, align 8
  store i64 %6, ptr %_b14, align 8
  %7 = load i64, ptr %_a13, align 8
  %cmp = icmp eq i64 %7, 0
  br i1 %cmp, label %cond.true, label %cond.false

cond.true:                                        ; preds = %qemu_make_lockable.exit
  %8 = load i64, ptr %_b14, align 8
  br label %cond.end10

cond.false:                                       ; preds = %qemu_make_lockable.exit
  %9 = load i64, ptr %_b14, align 8
  %cmp6 = icmp eq i64 %9, 0
  br i1 %cmp6, label %cond.true8, label %lor.lhs.false

lor.lhs.false:                                    ; preds = %cond.false
  %10 = load i64, ptr %_b14, align 8
  %11 = load i64, ptr %_a13, align 8
  %cmp7 = icmp sgt i64 %10, %11
  br i1 %cmp7, label %cond.true8, label %cond.false9

cond.true8:                                       ; preds = %lor.lhs.false, %cond.false
  %12 = load i64, ptr %_a13, align 8
  br label %cond.end

cond.false9:                                      ; preds = %lor.lhs.false
  %13 = load i64, ptr %_b14, align 8
  br label %cond.end

cond.end:                                         ; preds = %cond.false9, %cond.true8
  %cond = phi i64 [ %12, %cond.true8 ], [ %13, %cond.false9 ]
  br label %cond.end10

cond.end10:                                       ; preds = %cond.end, %cond.true
  %cond11 = phi i64 [ %8, %cond.true ], [ %cond, %cond.end ]
  store i64 %cond11, ptr %tmp, align 8
  %14 = load i64, ptr %tmp, align 8
  store i64 %14, ptr %max_chunk, align 8
  %15 = load ptr, ptr %s.addr, align 8
  %copy_bitmap = getelementptr inbounds %struct.BlockCopyState, ptr %15, i32 0, i32 12
  %16 = load ptr, ptr %copy_bitmap, align 8
  %17 = load i64, ptr %offset.addr, align 8
  %18 = load i64, ptr %offset.addr, align 8
  %19 = load i64, ptr %bytes.addr, align 8
  %add = add i64 %18, %19
  %20 = load i64, ptr %max_chunk, align 8
  %call12 = call zeroext i1 @bdrv_dirty_bitmap_next_dirty_area(ptr noundef %16, i64 noundef %17, i64 noundef %add, i64 noundef %20, ptr noundef %offset.addr, ptr noundef %bytes.addr)
  br i1 %call12, label %if.end, label %if.then

if.then:                                          ; preds = %cond.end10
  store ptr null, ptr %retval, align 8
  store i32 1, ptr %cleanup.dest.slot, align 4
  br label %cleanup

if.end:                                           ; preds = %cond.end10
  %21 = load i64, ptr %offset.addr, align 8
  %22 = load ptr, ptr %s.addr, align 8
  %cluster_size = getelementptr inbounds %struct.BlockCopyState, ptr %22, i32 0, i32 2
  %23 = load i64, ptr %cluster_size, align 8
  %rem = srem i64 %21, %23
  %cmp13 = icmp eq i64 %rem, 0
  br i1 %cmp13, label %if.then14, label %if.else

if.then14:                                        ; preds = %if.end
  br label %if.end15

if.else:                                          ; preds = %if.end
  call void @__assert_fail(ptr noundef @.str.9, ptr noundef @.str.1, i32 noundef 203, ptr noundef @__PRETTY_FUNCTION__.block_copy_task_create) #8
  unreachable

if.end15:                                         ; preds = %if.then14
  %24 = load i64, ptr %bytes.addr, align 8
  %25 = load ptr, ptr %s.addr, align 8
  %cluster_size16 = getelementptr inbounds %struct.BlockCopyState, ptr %25, i32 0, i32 2
  %26 = load i64, ptr %cluster_size16, align 8
  %add17 = add i64 %24, %26
  %sub = sub i64 %add17, 1
  %27 = load ptr, ptr %s.addr, align 8
  %cluster_size18 = getelementptr inbounds %struct.BlockCopyState, ptr %27, i32 0, i32 2
  %28 = load i64, ptr %cluster_size18, align 8
  %div = sdiv i64 %sub, %28
  %29 = load ptr, ptr %s.addr, align 8
  %cluster_size19 = getelementptr inbounds %struct.BlockCopyState, ptr %29, i32 0, i32 2
  %30 = load i64, ptr %cluster_size19, align 8
  %mul = mul i64 %div, %30
  store i64 %mul, ptr %bytes.addr, align 8
  %31 = load ptr, ptr %s.addr, align 8
  %reqs = getelementptr inbounds %struct.BlockCopyState, ptr %31, i32 0, i32 9
  %32 = load i64, ptr %offset.addr, align 8
  %33 = load i64, ptr %bytes.addr, align 8
  %call20 = call ptr @reqlist_find_conflict(ptr noundef %reqs, i64 noundef %32, i64 noundef %33)
  %tobool = icmp ne ptr %call20, null
  br i1 %tobool, label %if.else22, label %if.then21

if.then21:                                        ; preds = %if.end15
  br label %if.end23

if.else22:                                        ; preds = %if.end15
  call void @__assert_fail(ptr noundef @.str.14, ptr noundef @.str.1, i32 noundef 207, ptr noundef @__PRETTY_FUNCTION__.block_copy_task_create) #8
  unreachable

if.end23:                                         ; preds = %if.then21
  %34 = load ptr, ptr %s.addr, align 8
  %copy_bitmap24 = getelementptr inbounds %struct.BlockCopyState, ptr %34, i32 0, i32 12
  %35 = load ptr, ptr %copy_bitmap24, align 8
  %36 = load i64, ptr %offset.addr, align 8
  %37 = load i64, ptr %bytes.addr, align 8
  call void @bdrv_reset_dirty_bitmap(ptr noundef %35, i64 noundef %36, i64 noundef %37)
  %38 = load i64, ptr %bytes.addr, align 8
  %39 = load ptr, ptr %s.addr, align 8
  %in_flight_bytes = getelementptr inbounds %struct.BlockCopyState, ptr %39, i32 0, i32 7
  %40 = load i64, ptr %in_flight_bytes, align 8
  %add25 = add i64 %40, %38
  store i64 %add25, ptr %in_flight_bytes, align 8
  %call26 = call noalias ptr @g_malloc_n(i64 noundef 1, i64 noundef 96) #9
  store ptr %call26, ptr %task, align 8
  %41 = load ptr, ptr %task, align 8
  %task28 = getelementptr inbounds %struct.BlockCopyTask, ptr %.compoundliteral27, i32 0, i32 0
  %pool = getelementptr inbounds %struct.AioTask, ptr %task28, i32 0, i32 0
  store ptr null, ptr %pool, align 8
  %func = getelementptr inbounds %struct.AioTask, ptr %task28, i32 0, i32 1
  store ptr @block_copy_task_entry, ptr %func, align 8
  %ret = getelementptr inbounds %struct.AioTask, ptr %task28, i32 0, i32 2
  store i32 0, ptr %ret, align 8
  %s29 = getelementptr inbounds %struct.BlockCopyTask, ptr %.compoundliteral27, i32 0, i32 1
  %42 = load ptr, ptr %s.addr, align 8
  store ptr %42, ptr %s29, align 8
  %call_state30 = getelementptr inbounds %struct.BlockCopyTask, ptr %.compoundliteral27, i32 0, i32 2
  %43 = load ptr, ptr %call_state.addr, align 8
  store ptr %43, ptr %call_state30, align 8
  %method = getelementptr inbounds %struct.BlockCopyTask, ptr %.compoundliteral27, i32 0, i32 3
  %44 = load ptr, ptr %s.addr, align 8
  %method31 = getelementptr inbounds %struct.BlockCopyState, ptr %44, i32 0, i32 8
  %45 = load i32, ptr %method31, align 8
  store i32 %45, ptr %method, align 8
  %req = getelementptr inbounds %struct.BlockCopyTask, ptr %.compoundliteral27, i32 0, i32 4
  call void @llvm.memset.p0.i64(ptr align 8 %req, i8 0, i64 48, i1 false)
  call void @llvm.memcpy.p0.p0.i64(ptr align 8 %41, ptr align 8 %.compoundliteral27, i64 96, i1 false)
  %46 = load ptr, ptr %s.addr, align 8
  %reqs32 = getelementptr inbounds %struct.BlockCopyState, ptr %46, i32 0, i32 9
  %47 = load ptr, ptr %task, align 8
  %req33 = getelementptr inbounds %struct.BlockCopyTask, ptr %47, i32 0, i32 4
  %48 = load i64, ptr %offset.addr, align 8
  %49 = load i64, ptr %bytes.addr, align 8
  call void @reqlist_init_req(ptr noundef %reqs32, ptr noundef %req33, i64 noundef %48, i64 noundef %49)
  %50 = load ptr, ptr %task, align 8
  store ptr %50, ptr %retval, align 8
  store i32 1, ptr %cleanup.dest.slot, align 4
  br label %cleanup

cleanup:                                          ; preds = %if.end23, %if.then
  call void @glib_autoptr_cleanup_QemuLockable(ptr noundef %qemu_lockable_auto12)
  %51 = load ptr, ptr %retval, align 8
  ret ptr %51
}