; Function Attrs: nounwind sspstrong uwtable
define internal noundef ptr @block_copy_task_create(ptr noundef %s, ptr noundef %call_state, i64 noundef %offset, i64 noundef %bytes) #0 {
entry:
  %offset.addr = alloca i64, align 8
  %bytes.addr = alloca i64, align 8
  %.compoundliteral27.sroa.7 = alloca [52 x i8], align 4
  store i64 %offset, ptr %offset.addr, align 8
  store i64 %bytes, ptr %bytes.addr, align 8
  %lock = getelementptr inbounds nuw i8, ptr %s, i64 48
  tail call void @qemu_co_mutex_lock(ptr noundef nonnull %lock) #14
  %method.i = getelementptr inbounds nuw i8, ptr %s, i64 104
  %0 = load i32, ptr %method.i, align 8
  switch i32 %0, label %sw.default.i [
    i32 0, label %sw.bb.i
    i32 1, label %sw.bb1.i
    i32 3, label %sw.bb1.i
    i32 4, label %sw.bb9.i
  ]

sw.bb.i:                                          ; preds = %entry
  %cluster_size.i = getelementptr inbounds nuw i8, ptr %s, i64 16
  %1 = load i64, ptr %cluster_size.i, align 8
  br label %block_copy_chunk_size.exit

sw.bb1.i:                                         ; preds = %entry, %entry
  %cluster_size2.i = getelementptr inbounds nuw i8, ptr %s, i64 16
  %2 = load i64, ptr %cluster_size2.i, align 8
  %cond.i = tail call i64 @llvm.smax.i64(i64 %2, i64 1048576)
  %max_transfer.i = getelementptr inbounds nuw i8, ptr %s, i64 24
  %3 = load i64, ptr %max_transfer.i, align 8
  %cond8.i = tail call i64 @llvm.smin.i64(i64 %cond.i, i64 %3)
  br label %block_copy_chunk_size.exit

sw.bb9.i:                                         ; preds = %entry
  %cluster_size10.i = getelementptr inbounds nuw i8, ptr %s, i64 16
  %4 = load i64, ptr %cluster_size10.i, align 8
  %cond16.i = tail call i64 @llvm.smax.i64(i64 %4, i64 16777216)
  %max_transfer17.i = getelementptr inbounds nuw i8, ptr %s, i64 24
  %5 = load i64, ptr %max_transfer17.i, align 8
  %cond23.i = tail call i64 @llvm.smin.i64(i64 %cond16.i, i64 %5)
  br label %block_copy_chunk_size.exit

sw.default.i:                                     ; preds = %entry
  tail call void @abort() #15
  unreachable

block_copy_chunk_size.exit:                       ; preds = %sw.bb.i, %sw.bb1.i, %sw.bb9.i
  %retval.0.i = phi i64 [ %cond23.i, %sw.bb9.i ], [ %cond8.i, %sw.bb1.i ], [ %1, %sw.bb.i ]
  %max_chunk5 = getelementptr inbounds nuw i8, ptr %call_state, i64 32
  %6 = load i64, ptr %max_chunk5, align 8
  %cmp = icmp eq i64 %retval.0.i, 0
  %cmp6 = icmp eq i64 %6, 0
  %7 = tail call i64 @llvm.smin.i64(i64 %6, i64 %retval.0.i)
  %spec.select = select i1 %cmp6, i64 %retval.0.i, i64 %7
  %cond11 = select i1 %cmp, i64 %6, i64 %spec.select
  %copy_bitmap = getelementptr inbounds nuw i8, ptr %s, i64 136
  %8 = load ptr, ptr %copy_bitmap, align 8
  %add = add i64 %bytes, %offset
  %call12 = call zeroext i1 @bdrv_dirty_bitmap_next_dirty_area(ptr noundef %8, i64 noundef %offset, i64 noundef %add, i64 noundef %cond11, ptr noundef nonnull %offset.addr, ptr noundef nonnull %bytes.addr) #14
  br i1 %call12, label %if.end, label %glib_autoptr_cleanup_QemuLockable.exit

if.end:                                           ; preds = %block_copy_chunk_size.exit
  %9 = load i64, ptr %offset.addr, align 8
  %cluster_size = getelementptr inbounds nuw i8, ptr %s, i64 16
  %10 = load i64, ptr %cluster_size, align 8
  %rem = srem i64 %9, %10
  %cmp13 = icmp eq i64 %rem, 0
  br i1 %cmp13, label %if.end15, label %if.else

if.else:                                          ; preds = %if.end
  call void @__assert_fail(ptr noundef nonnull @.str.9, ptr noundef nonnull @.str.1, i32 noundef 203, ptr noundef nonnull @__PRETTY_FUNCTION__.block_copy_task_create) #15
  unreachable

if.end15:                                         ; preds = %if.end
  %11 = load i64, ptr %bytes.addr, align 8
  %add17 = add i64 %11, %10
  %add17.fr = freeze i64 %add17
  %sub = add i64 %add17.fr, -1
  %12 = srem i64 %sub, %10
  %mul = sub nsw i64 %sub, %12
  store i64 %mul, ptr %bytes.addr, align 8
  %reqs = getelementptr inbounds nuw i8, ptr %s, i64 112
  %call20 = call ptr @reqlist_find_conflict(ptr noundef nonnull %reqs, i64 noundef %9, i64 noundef %mul) #14
  %tobool.not = icmp eq ptr %call20, null
  br i1 %tobool.not, label %if.end23, label %if.else22

if.else22:                                        ; preds = %if.end15
  call void @__assert_fail(ptr noundef nonnull @.str.14, ptr noundef nonnull @.str.1, i32 noundef 207, ptr noundef nonnull @__PRETTY_FUNCTION__.block_copy_task_create) #15
  unreachable

if.end23:                                         ; preds = %if.end15
  %13 = load ptr, ptr %copy_bitmap, align 8
  %14 = load i64, ptr %offset.addr, align 8
  %15 = load i64, ptr %bytes.addr, align 8
  call void @bdrv_reset_dirty_bitmap(ptr noundef %13, i64 noundef %14, i64 noundef %15) #14
  %16 = load i64, ptr %bytes.addr, align 8
  %in_flight_bytes = getelementptr inbounds nuw i8, ptr %s, i64 96
  %17 = load i64, ptr %in_flight_bytes, align 8
  %add25 = add i64 %17, %16
  store i64 %add25, ptr %in_flight_bytes, align 8
  %call26 = call noalias dereferenceable_or_null(96) ptr @g_malloc_n(i64 noundef 1, i64 noundef 96) #16
  %18 = load i32, ptr %method.i, align 8
  %.compoundliteral27.sroa.7.4.req.sroa_idx24 = getelementptr inbounds nuw i8, ptr %.compoundliteral27.sroa.7, i64 4
  call void @llvm.memset.p0.i64(ptr noundef nonnull align 4 dereferenceable(48) %.compoundliteral27.sroa.7.4.req.sroa_idx24, i8 0, i64 48, i1 false)
  store ptr null, ptr %call26, align 8
  %.compoundliteral27.sroa.2.0..sroa_idx = getelementptr inbounds nuw i8, ptr %call26, i64 8
  store ptr @block_copy_task_entry, ptr %.compoundliteral27.sroa.2.0..sroa_idx, align 8
  %.compoundliteral27.sroa.3.0..sroa_idx = getelementptr inbounds nuw i8, ptr %call26, i64 16
  store i32 0, ptr %.compoundliteral27.sroa.3.0..sroa_idx, align 8
  %.compoundliteral27.sroa.41.0..sroa_idx = getelementptr inbounds nuw i8, ptr %call26, i64 24
  store ptr %s, ptr %.compoundliteral27.sroa.41.0..sroa_idx, align 8
  %.compoundliteral27.sroa.5.0..sroa_idx = getelementptr inbounds nuw i8, ptr %call26, i64 32
  store ptr %call_state, ptr %.compoundliteral27.sroa.5.0..sroa_idx, align 8
  %.compoundliteral27.sroa.6.0..sroa_idx = getelementptr inbounds nuw i8, ptr %call26, i64 40
  store i32 %18, ptr %.compoundliteral27.sroa.6.0..sroa_idx, align 8
  %.compoundliteral27.sroa.7.0..sroa_idx = getelementptr inbounds nuw i8, ptr %call26, i64 44
  call void @llvm.memcpy.p0.p0.i64(ptr noundef nonnull align 4 dereferenceable(52) %.compoundliteral27.sroa.7.0..sroa_idx, ptr noundef nonnull align 4 dereferenceable(52) %.compoundliteral27.sroa.7, i64 52, i1 false)
  %req33 = getelementptr inbounds nuw i8, ptr %call26, i64 48
  %19 = load i64, ptr %offset.addr, align 8
  %20 = load i64, ptr %bytes.addr, align 8
  call void @reqlist_init_req(ptr noundef nonnull %reqs, ptr noundef nonnull %req33, i64 noundef %19, i64 noundef %20) #14
  br label %glib_autoptr_cleanup_QemuLockable.exit

glib_autoptr_cleanup_QemuLockable.exit:           ; preds = %block_copy_chunk_size.exit, %if.end23
  %retval.0 = phi ptr [ %call26, %if.end23 ], [ null, %block_copy_chunk_size.exit ]
  call void @qemu_co_mutex_unlock(ptr noundef nonnull %lock) #14
  ret ptr %retval.0
}